target datalayout = "e-m:e-p270:32:32-p271:32:32-p272:64:64-i64:64-i128:128-f80:128-n8:16:32:64-S128"
target triple = "x86_64-pc-linux-gnu"

%"class.sentencepiece::model::FreeList.21" = type { ptr, %"class.std::vector.22", i64, i64, i64 }
%"class.std::vector.22" = type { %"struct.std::_Vector_base.23" }
%"struct.std::_Vector_base.23" = type { %"struct.std::_Vector_base<sentencepiece::unigram::(anonymous namespace)::Hypothesis *, std::allocator<sentencepiece::unigram::(anonymous namespace)::Hypothesis *>>::_Vector_impl" }
%"struct.std::_Vector_base<sentencepiece::unigram::(anonymous namespace)::Hypothesis *, std::allocator<sentencepiece::unigram::(anonymous namespace)::Hypothesis *>>::_Vector_impl" = type { %"struct.std::_Vector_base<sentencepiece::unigram::(anonymous namespace)::Hypothesis *, std::allocator<sentencepiece::unigram::(anonymous namespace)::Hypothesis *>>::_Vector_impl_data" }
%"struct.std::_Vector_base<sentencepiece::unigram::(anonymous namespace)::Hypothesis *, std::allocator<sentencepiece::unigram::(anonymous namespace)::Hypothesis *>>::_Vector_impl_data" = type { ptr, ptr, ptr }
%"class.__gnu_cxx::__normal_iterator.152" = type { ptr }

; Function Attrs: mustprogress nounwind uwtable
define internal void @_ZNSt15__new_allocatorIPN13sentencepiece7unigram12_GLOBAL__N_110HypothesisEE10deallocateEPS4_m(ptr noundef nonnull align 1 dereferenceable(1) %0, ptr noundef %1, i64 noundef %2) #5 align 2 {
  %4 = alloca ptr, align 8
  %5 = alloca ptr, align 8
  %6 = alloca i64, align 8
  store ptr %0, ptr %4, align 8, !tbaa !535
  store ptr %1, ptr %5, align 8, !tbaa !147
  store i64 %2, ptr %6, align 8, !tbaa !23
  %7 = load ptr, ptr %5, align 8, !tbaa !147
  %8 = load i64, ptr %6, align 8, !tbaa !23
  %9 = mul i64 %8, 8
  call void @_ZdlPvm(ptr noundef %7, i64 noundef %9) #22
  ret void
}

; Function Attrs: mustprogress uwtable
define internal void @_ZNSt16allocator_traitsISaIPN13sentencepiece7unigram12_GLOBAL__N_110HypothesisEEE10deallocateERS5_PS4_m(ptr noundef nonnull align 1 dereferenceable(1) %0, ptr noundef %1, i64 noundef %2) #4 align 2 {
  %4 = alloca ptr, align 8
  %5 = alloca ptr, align 8
  %6 = alloca i64, align 8
  store ptr %0, ptr %4, align 8, !tbaa !529
  store ptr %1, ptr %5, align 8, !tbaa !147
  store i64 %2, ptr %6, align 8, !tbaa !23
  %7 = load ptr, ptr %4, align 8, !tbaa !529
  %8 = load ptr, ptr %5, align 8, !tbaa !147
  %9 = load i64, ptr %6, align 8, !tbaa !23
  call void @_ZNSt15__new_allocatorIPN13sentencepiece7unigram12_GLOBAL__N_110HypothesisEE10deallocateEPS4_m(ptr noundef nonnull align 1 dereferenceable(1) %7, ptr noundef %8, i64 noundef %9)
  ret void
}

; Function Attrs: mustprogress nounwind uwtable
define internal void @_ZNSt12_Destroy_auxILb1EE9__destroyIPPN13sentencepiece7unigram12_GLOBAL__N_110HypothesisEEEvT_S8_(ptr noundef %0, ptr noundef %1) #5 align 2 {
  %3 = alloca ptr, align 8
  %4 = alloca ptr, align 8
  store ptr %0, ptr %3, align 8, !tbaa !147
  store ptr %1, ptr %4, align 8, !tbaa !147
  ret void
}

; Function Attrs: mustprogress nounwind uwtable
define internal void @_ZNSt15__new_allocatorIPN13sentencepiece7unigram12_GLOBAL__N_110HypothesisEED2Ev(ptr noundef nonnull align 1 dereferenceable(1) %0) unnamed_addr #5 align 2 {
  %2 = alloca ptr, align 8
  store ptr %0, ptr %2, align 8, !tbaa !535
  ret void
}

; Function Attrs: mustprogress uwtable
define internal void @_ZNSt12_Vector_baseIPN13sentencepiece7unigram12_GLOBAL__N_110HypothesisESaIS4_EE13_M_deallocateEPS4_m(ptr noundef nonnull align 8 dereferenceable(24) %0, ptr noundef %1, i64 noundef %2) #4 align 2 {
  %4 = alloca ptr, align 8
  %5 = alloca ptr, align 8
  %6 = alloca i64, align 8
  store ptr %0, ptr %4, align 8, !tbaa !527
  store ptr %1, ptr %5, align 8, !tbaa !147
  store i64 %2, ptr %6, align 8, !tbaa !23
  %7 = load ptr, ptr %4, align 8
  %8 = load ptr, ptr %5, align 8, !tbaa !147
  %9 = icmp ne ptr %8, null
  br i1 %9, label %10, label %14

10:                                               ; preds = %3
  %11 = getelementptr inbounds nuw %"struct.std::_Vector_base.23", ptr %7, i32 0, i32 0
  %12 = load ptr, ptr %5, align 8, !tbaa !147
  %13 = load i64, ptr %6, align 8, !tbaa !23
  call void @_ZNSt16allocator_traitsISaIPN13sentencepiece7unigram12_GLOBAL__N_110HypothesisEEE10deallocateERS5_PS4_m(ptr noundef nonnull align 1 dereferenceable(1) %11, ptr noundef %12, i64 noundef %13)
  br label %14

14:                                               ; preds = %10, %3
  ret void
}

; Function Attrs: inlinehint mustprogress uwtable
define internal void @_ZSt8_DestroyIPPN13sentencepiece7unigram12_GLOBAL__N_110HypothesisEEvT_S6_(ptr noundef %0, ptr noundef %1) #10 {
  %3 = alloca ptr, align 8
  %4 = alloca ptr, align 8
  store ptr %0, ptr %3, align 8, !tbaa !147
  store ptr %1, ptr %4, align 8, !tbaa !147
  %5 = load ptr, ptr %3, align 8, !tbaa !147
  %6 = load ptr, ptr %4, align 8, !tbaa !147
  call void @_ZNSt12_Destroy_auxILb1EE9__destroyIPPN13sentencepiece7unigram12_GLOBAL__N_110HypothesisEEEvT_S8_(ptr noundef %5, ptr noundef %6)
  ret void
}

; Function Attrs: noinline noreturn nounwind uwtable
define linkonce_odr hidden void @__clang_call_terminate(ptr noundef %0) #13 comdat {
  %2 = call ptr @__cxa_begin_catch(ptr %0) #3
  call void @_ZSt9terminatev() #21
  unreachable
}

; Function Attrs: mustprogress nounwind uwtable
define internal void @_ZNSt12_Vector_baseIPN13sentencepiece7unigram12_GLOBAL__N_110HypothesisESaIS4_EED2Ev(ptr noundef nonnull align 8 dereferenceable(24) %0) unnamed_addr #5 align 2 personality ptr @__gxx_personality_v0 {
  %2 = alloca ptr, align 8
  store ptr %0, ptr %2, align 8, !tbaa !527
  %3 = load ptr, ptr %2, align 8
  %4 = getelementptr inbounds nuw %"struct.std::_Vector_base.23", ptr %3, i32 0, i32 0
  %5 = getelementptr inbounds nuw %"struct.std::_Vector_base<sentencepiece::unigram::(anonymous namespace)::Hypothesis *, std::allocator<sentencepiece::unigram::(anonymous namespace)::Hypothesis *>>::_Vector_impl_data", ptr %4, i32 0, i32 0
  %6 = load ptr, ptr %5, align 8, !tbaa !533
  %7 = getelementptr inbounds nuw %"struct.std::_Vector_base.23", ptr %3, i32 0, i32 0
  %8 = getelementptr inbounds nuw %"struct.std::_Vector_base<sentencepiece::unigram::(anonymous namespace)::Hypothesis *, std::allocator<sentencepiece::unigram::(anonymous namespace)::Hypothesis *>>::_Vector_impl_data", ptr %7, i32 0, i32 2
  %9 = load ptr, ptr %8, align 8, !tbaa !539
  %10 = getelementptr inbounds nuw %"struct.std::_Vector_base.23", ptr %3, i32 0, i32 0
  %11 = getelementptr inbounds nuw %"struct.std::_Vector_base<sentencepiece::unigram::(anonymous namespace)::Hypothesis *, std::allocator<sentencepiece::unigram::(anonymous namespace)::Hypothesis *>>::_Vector_impl_data", ptr %10, i32 0, i32 0
  %12 = load ptr, ptr %11, align 8, !tbaa !533
  %13 = ptrtoint ptr %9 to i64
  %14 = ptrtoint ptr %12 to i64
  %15 = sub i64 %13, %14
  %16 = sdiv exact i64 %15, 8
  invoke void @_ZNSt12_Vector_baseIPN13sentencepiece7unigram12_GLOBAL__N_110HypothesisESaIS4_EE13_M_deallocateEPS4_m(ptr noundef nonnull align 8 dereferenceable(24) %3, ptr noundef %6, i64 noundef %16)
          to label %17 unwind label %19

17:                                               ; preds = %1
  %18 = getelementptr inbounds nuw %"struct.std::_Vector_base.23", ptr %3, i32 0, i32 0
  call void @_ZNSt15__new_allocatorIPN13sentencepiece7unigram12_GLOBAL__N_110HypothesisEED2Ev(ptr noundef nonnull align 8 dereferenceable(24) %18) #3
  ret void

19:                                               ; preds = %1
  %20 = landingpad { ptr, i32 }
          catch ptr null
  %21 = extractvalue { ptr, i32 } %20, 0
  call void @__clang_call_terminate(ptr %21) #21
  unreachable
}

; Function Attrs: inlinehint mustprogress uwtable
define internal void @_ZSt8_DestroyIPPN13sentencepiece7unigram12_GLOBAL__N_110HypothesisES4_EvT_S6_RSaIT0_E(ptr noundef %0, ptr noundef %1, ptr noundef nonnull align 1 dereferenceable(1) %2) #10 {
  %4 = alloca ptr, align 8
  %5 = alloca ptr, align 8
  %6 = alloca ptr, align 8
  store ptr %0, ptr %4, align 8, !tbaa !147
  store ptr %1, ptr %5, align 8, !tbaa !147
  store ptr %2, ptr %6, align 8, !tbaa !529
  %7 = load ptr, ptr %4, align 8, !tbaa !147
  %8 = load ptr, ptr %5, align 8, !tbaa !147
  call void @_ZSt8_DestroyIPPN13sentencepiece7unigram12_GLOBAL__N_110HypothesisEEvT_S6_(ptr noundef %7, ptr noundef %8)
  ret void
}

; Function Attrs: mustprogress nounwind uwtable
define internal noundef nonnull align 1 dereferenceable(1) ptr @_ZNSt12_Vector_baseIPN13sentencepiece7unigram12_GLOBAL__N_110HypothesisESaIS4_EE19_M_get_Tp_allocatorEv(ptr noundef nonnull align 8 dereferenceable(24) %0) #5 align 2 {
  %2 = alloca ptr, align 8
  store ptr %0, ptr %2, align 8, !tbaa !527
  %3 = load ptr, ptr %2, align 8
  %4 = getelementptr inbounds nuw %"struct.std::_Vector_base.23", ptr %3, i32 0, i32 0
  ret ptr %4
}

; Function Attrs: mustprogress nounwind uwtable
define internal noundef nonnull align 8 dereferenceable(8) ptr @_ZNK9__gnu_cxx17__normal_iteratorIPPN13sentencepiece7unigram12_GLOBAL__N_110HypothesisESt6vectorIS5_SaIS5_EEE4baseEv(ptr noundef nonnull align 8 dereferenceable(8) %0) #5 align 2 {
  %2 = alloca ptr, align 8
  store ptr %0, ptr %2, align 8, !tbaa !750
  %3 = load ptr, ptr %2, align 8
  %4 = getelementptr inbounds nuw %"class.__gnu_cxx::__normal_iterator.152", ptr %3, i32 0, i32 0
  ret ptr %4
}

; Function Attrs: mustprogress nounwind uwtable
define internal void @_ZN9__gnu_cxx17__normal_iteratorIPPN13sentencepiece7unigram12_GLOBAL__N_110HypothesisESt6vectorIS5_SaIS5_EEEC2ERKS6_(ptr noundef nonnull align 8 dereferenceable(8) %0, ptr noundef nonnull align 8 dereferenceable(8) %1) unnamed_addr #5 align 2 {
  %3 = alloca ptr, align 8
  %4 = alloca ptr, align 8
  store ptr %0, ptr %3, align 8, !tbaa !750
  store ptr %1, ptr %4, align 8, !tbaa !752
  %5 = load ptr, ptr %3, align 8
  %6 = getelementptr inbounds nuw %"class.__gnu_cxx::__normal_iterator.152", ptr %5, i32 0, i32 0
  %7 = load ptr, ptr %4, align 8, !tbaa !752
  %8 = load ptr, ptr %7, align 8, !tbaa !147
  store ptr %8, ptr %6, align 8, !tbaa !754
  ret void
}

; Function Attrs: mustprogress nounwind uwtable
define internal void @_ZNSt6vectorIPN13sentencepiece7unigram12_GLOBAL__N_110HypothesisESaIS4_EED2Ev(ptr noundef nonnull align 8 dereferenceable(24) %0) unnamed_addr #5 align 2 personality ptr @__gxx_personality_v0 {
  %2 = alloca ptr, align 8
  store ptr %0, ptr %2, align 8, !tbaa !166
  %3 = load ptr, ptr %2, align 8
  %4 = getelementptr inbounds nuw %"struct.std::_Vector_base.23", ptr %3, i32 0, i32 0
  %5 = getelementptr inbounds nuw %"struct.std::_Vector_base<sentencepiece::unigram::(anonymous namespace)::Hypothesis *, std::allocator<sentencepiece::unigram::(anonymous namespace)::Hypothesis *>>::_Vector_impl_data", ptr %4, i32 0, i32 0
  %6 = load ptr, ptr %5, align 8, !tbaa !533
  %7 = getelementptr inbounds nuw %"struct.std::_Vector_base.23", ptr %3, i32 0, i32 0
  %8 = getelementptr inbounds nuw %"struct.std::_Vector_base<sentencepiece::unigram::(anonymous namespace)::Hypothesis *, std::allocator<sentencepiece::unigram::(anonymous namespace)::Hypothesis *>>::_Vector_impl_data", ptr %7, i32 0, i32 1
  %9 = load ptr, ptr %8, align 8, !tbaa !534
  %10 = call noundef nonnull align 1 dereferenceable(1) ptr @_ZNSt12_Vector_baseIPN13sentencepiece7unigram12_GLOBAL__N_110HypothesisESaIS4_EE19_M_get_Tp_allocatorEv(ptr noundef nonnull align 8 dereferenceable(24) %3) #3
  invoke void @_ZSt8_DestroyIPPN13sentencepiece7unigram12_GLOBAL__N_110HypothesisES4_EvT_S6_RSaIT0_E(ptr noundef %6, ptr noundef %9, ptr noundef nonnull align 1 dereferenceable(1) %10)
          to label %11 unwind label %12

11:                                               ; preds = %1
  call void @_ZNSt12_Vector_baseIPN13sentencepiece7unigram12_GLOBAL__N_110HypothesisESaIS4_EED2Ev(ptr noundef nonnull align 8 dereferenceable(24) %3) #3
  ret void

12:                                               ; preds = %1
  %13 = landingpad { ptr, i32 }
          catch ptr null
  %14 = extractvalue { ptr, i32 } %13, 0
  call void @__clang_call_terminate(ptr %14) #21
  unreachable
}

; Function Attrs: mustprogress nounwind uwtable
define internal noundef nonnull align 8 dereferenceable(8) ptr @_ZN9__gnu_cxx17__normal_iteratorIPPN13sentencepiece7unigram12_GLOBAL__N_110HypothesisESt6vectorIS5_SaIS5_EEEppEv(ptr noundef nonnull align 8 dereferenceable(8) %0) #5 align 2 {
  %2 = alloca ptr, align 8
  store ptr %0, ptr %2, align 8, !tbaa !750
  %3 = load ptr, ptr %2, align 8
  %4 = getelementptr inbounds nuw %"class.__gnu_cxx::__normal_iterator.152", ptr %3, i32 0, i32 0
  %5 = load ptr, ptr %4, align 8, !tbaa !754
  %6 = getelementptr inbounds nuw ptr, ptr %5, i32 1
  store ptr %6, ptr %4, align 8, !tbaa !754
  ret ptr %3
}

; Function Attrs: mustprogress nounwind uwtable
define internal noundef nonnull align 8 dereferenceable(8) ptr @_ZNK9__gnu_cxx17__normal_iteratorIPPN13sentencepiece7unigram12_GLOBAL__N_110HypothesisESt6vectorIS5_SaIS5_EEEdeEv(ptr noundef nonnull align 8 dereferenceable(8) %0) #5 align 2 {
  %2 = alloca ptr, align 8
  store ptr %0, ptr %2, align 8, !tbaa !750
  %3 = load ptr, ptr %2, align 8
  %4 = getelementptr inbounds nuw %"class.__gnu_cxx::__normal_iterator.152", ptr %3, i32 0, i32 0
  %5 = load ptr, ptr %4, align 8, !tbaa !754
  ret ptr %5
}

; Function Attrs: inlinehint mustprogress nounwind uwtable
define internal noundef zeroext i1 @_ZN9__gnu_cxxneIPPN13sentencepiece7unigram12_GLOBAL__N_110HypothesisESt6vectorIS5_SaIS5_EEEEbRKNS_17__normal_iteratorIT_T0_EESF_(ptr noundef nonnull align 8 dereferenceable(8) %0, ptr noundef nonnull align 8 dereferenceable(8) %1) #7 {
  %3 = alloca ptr, align 8
  %4 = alloca ptr, align 8
  store ptr %0, ptr %3, align 8, !tbaa !750
  store ptr %1, ptr %4, align 8, !tbaa !750
  %5 = load ptr, ptr %3, align 8, !tbaa !750
  %6 = call noundef nonnull align 8 dereferenceable(8) ptr @_ZNK9__gnu_cxx17__normal_iteratorIPPN13sentencepiece7unigram12_GLOBAL__N_110HypothesisESt6vectorIS5_SaIS5_EEE4baseEv(ptr noundef nonnull align 8 dereferenceable(8) %5) #3
  %7 = load ptr, ptr %6, align 8, !tbaa !147
  %8 = load ptr, ptr %4, align 8, !tbaa !750
  %9 = call noundef nonnull align 8 dereferenceable(8) ptr @_ZNK9__gnu_cxx17__normal_iteratorIPPN13sentencepiece7unigram12_GLOBAL__N_110HypothesisESt6vectorIS5_SaIS5_EEE4baseEv(ptr noundef nonnull align 8 dereferenceable(8) %8) #3
  %10 = load ptr, ptr %9, align 8, !tbaa !147
  %11 = icmp ne ptr %7, %10
  ret i1 %11
}

; Function Attrs: mustprogress nounwind uwtable
define internal ptr @_ZNSt6vectorIPN13sentencepiece7unigram12_GLOBAL__N_110HypothesisESaIS4_EE3endEv(ptr noundef nonnull align 8 dereferenceable(24) %0) #5 align 2 {
  %2 = alloca %"class.__gnu_cxx::__normal_iterator.152", align 8
  %3 = alloca ptr, align 8
  store ptr %0, ptr %3, align 8, !tbaa !166
  %4 = load ptr, ptr %3, align 8
  %5 = getelementptr inbounds nuw %"struct.std::_Vector_base.23", ptr %4, i32 0, i32 0
  %6 = getelementptr inbounds nuw %"struct.std::_Vector_base<sentencepiece::unigram::(anonymous namespace)::Hypothesis *, std::allocator<sentencepiece::unigram::(anonymous namespace)::Hypothesis *>>::_Vector_impl_data", ptr %5, i32 0, i32 1
  call void @_ZN9__gnu_cxx17__normal_iteratorIPPN13sentencepiece7unigram12_GLOBAL__N_110HypothesisESt6vectorIS5_SaIS5_EEEC2ERKS6_(ptr noundef nonnull align 8 dereferenceable(8) %2, ptr noundef nonnull align 8 dereferenceable(8) %6) #3
  %7 = getelementptr inbounds nuw %"class.__gnu_cxx::__normal_iterator.152", ptr %2, i32 0, i32 0
  %8 = load ptr, ptr %7, align 8
  ret ptr %8
}

; Function Attrs: mustprogress nounwind uwtable
define internal ptr @_ZNSt6vectorIPN13sentencepiece7unigram12_GLOBAL__N_110HypothesisESaIS4_EE5beginEv(ptr noundef nonnull align 8 dereferenceable(24) %0) #5 align 2 {
  %2 = alloca %"class.__gnu_cxx::__normal_iterator.152", align 8
  %3 = alloca ptr, align 8
  store ptr %0, ptr %3, align 8, !tbaa !166
  %4 = load ptr, ptr %3, align 8
  %5 = getelementptr inbounds nuw %"struct.std::_Vector_base.23", ptr %4, i32 0, i32 0
  %6 = getelementptr inbounds nuw %"struct.std::_Vector_base<sentencepiece::unigram::(anonymous namespace)::Hypothesis *, std::allocator<sentencepiece::unigram::(anonymous namespace)::Hypothesis *>>::_Vector_impl_data", ptr %5, i32 0, i32 0
  call void @_ZN9__gnu_cxx17__normal_iteratorIPPN13sentencepiece7unigram12_GLOBAL__N_110HypothesisESt6vectorIS5_SaIS5_EEEC2ERKS6_(ptr noundef nonnull align 8 dereferenceable(8) %2, ptr noundef nonnull align 8 dereferenceable(8) %6) #3
  %7 = getelementptr inbounds nuw %"class.__gnu_cxx::__normal_iterator.152", ptr %2, i32 0, i32 0
  %8 = load ptr, ptr %7, align 8
  ret ptr %8
}

; Function Attrs: mustprogress nounwind uwtable
define internal void @_ZN13sentencepiece5model8FreeListINS_7unigram12_GLOBAL__N_110HypothesisEED2Ev(ptr noundef nonnull align 8 dereferenceable(56) %0) unnamed_addr #5 align 2 {
  %2 = alloca ptr, align 8
  %3 = alloca ptr, align 8
  %4 = alloca %"class.__gnu_cxx::__normal_iterator.152", align 8
  %5 = alloca %"class.__gnu_cxx::__normal_iterator.152", align 8
  %6 = alloca ptr, align 8
  store ptr %0, ptr %2, align 8, !tbaa !132
  %7 = load ptr, ptr %2, align 8
  store ptr getelementptr inbounds inrange(-16, 16) ({ [4 x ptr] }, ptr @_ZTVN13sentencepiece5model8FreeListINS_7unigram12_GLOBAL__N_110HypothesisEEE, i32 0, i32 0, i32 2), ptr %7, align 8, !tbaa !8
  call void @llvm.lifetime.start.p0(i64 8, ptr %3) #3
  %8 = getelementptr inbounds nuw %"class.sentencepiece::model::FreeList.21", ptr %7, i32 0, i32 1
  store ptr %8, ptr %3, align 8, !tbaa !166
  call void @llvm.lifetime.start.p0(i64 8, ptr %4) #3
  %9 = load ptr, ptr %3, align 8, !tbaa !166
  %10 = call ptr @_ZNSt6vectorIPN13sentencepiece7unigram12_GLOBAL__N_110HypothesisESaIS4_EE5beginEv(ptr noundef nonnull align 8 dereferenceable(24) %9) #3
  %11 = getelementptr inbounds nuw %"class.__gnu_cxx::__normal_iterator.152", ptr %4, i32 0, i32 0
  store ptr %10, ptr %11, align 8
  call void @llvm.lifetime.start.p0(i64 8, ptr %5) #3
  %12 = load ptr, ptr %3, align 8, !tbaa !166
  %13 = call ptr @_ZNSt6vectorIPN13sentencepiece7unigram12_GLOBAL__N_110HypothesisESaIS4_EE3endEv(ptr noundef nonnull align 8 dereferenceable(24) %12) #3
  %14 = getelementptr inbounds nuw %"class.__gnu_cxx::__normal_iterator.152", ptr %5, i32 0, i32 0
  store ptr %13, ptr %14, align 8
  br label %15

15:                                               ; preds = %25, %1
  %16 = call noundef zeroext i1 @_ZN9__gnu_cxxneIPPN13sentencepiece7unigram12_GLOBAL__N_110HypothesisESt6vectorIS5_SaIS5_EEEEbRKNS_17__normal_iteratorIT_T0_EESF_(ptr noundef nonnull align 8 dereferenceable(8) %4, ptr noundef nonnull align 8 dereferenceable(8) %5) #3
  br i1 %16, label %18, label %17

17:                                               ; preds = %15
  call void @llvm.lifetime.end.p0(i64 8, ptr %5) #3
  call void @llvm.lifetime.end.p0(i64 8, ptr %4) #3
  call void @llvm.lifetime.end.p0(i64 8, ptr %3) #3
  br label %27

18:                                               ; preds = %15
  call void @llvm.lifetime.start.p0(i64 8, ptr %6) #3
  %19 = call noundef nonnull align 8 dereferenceable(8) ptr @_ZNK9__gnu_cxx17__normal_iteratorIPPN13sentencepiece7unigram12_GLOBAL__N_110HypothesisESt6vectorIS5_SaIS5_EEEdeEv(ptr noundef nonnull align 8 dereferenceable(8) %4) #3
  store ptr %19, ptr %6, align 8, !tbaa !147
  %20 = load ptr, ptr %6, align 8, !tbaa !147
  %21 = load ptr, ptr %20, align 8, !tbaa !113
  %22 = icmp eq ptr %21, null
  br i1 %22, label %24, label %23

23:                                               ; preds = %18
  call void @_ZdaPv(ptr noundef %21) #22
  br label %24

24:                                               ; preds = %23, %18
  call void @llvm.lifetime.end.p0(i64 8, ptr %6) #3
  br label %25

25:                                               ; preds = %24
  %26 = call noundef nonnull align 8 dereferenceable(8) ptr @_ZN9__gnu_cxx17__normal_iteratorIPPN13sentencepiece7unigram12_GLOBAL__N_110HypothesisESt6vectorIS5_SaIS5_EEEppEv(ptr noundef nonnull align 8 dereferenceable(8) %4) #3
  br label %15

27:                                               ; preds = %17
  %28 = getelementptr inbounds nuw %"class.sentencepiece::model::FreeList.21", ptr %7, i32 0, i32 1
  call void @_ZNSt6vectorIPN13sentencepiece7unigram12_GLOBAL__N_110HypothesisESaIS4_EED2Ev(ptr noundef nonnull align 8 dereferenceable(24) %28) #3
  ret void
}