; Function Attrs: mustprogress nounwind uwtable
define internal void @_ZN13sentencepiece5model8FreeListINS_7unigram12_GLOBAL__N_110HypothesisEED2Ev(ptr noundef nonnull align 8 captures(none) dereferenceable(56) initializes((0, 8)) %0) unnamed_addr #4 align 2 personality ptr @__gxx_personality_v0 {
  store ptr getelementptr inbounds nuw inrange(-16, 16) (i8, ptr @_ZTVN13sentencepiece5model8FreeListINS_7unigram12_GLOBAL__N_110HypothesisEEE, i64 16), ptr %0, align 8, !tbaa !3
  %2 = getelementptr inbounds nuw i8, ptr %0, i64 8
  %.val = load ptr, ptr %2, align 8, !tbaa !119
  %3 = getelementptr inbounds nuw i8, ptr %0, i64 16
  %.val4 = load ptr, ptr %3, align 8, !tbaa !119
  %.not11 = icmp eq ptr %.val, %.val4
  br i1 %.not11, label %._crit_edge, label %.lr.ph

._crit_edge.loopexit:                             ; preds = %12
  %.val7.pre = load ptr, ptr %2, align 8
  br label %._crit_edge

._crit_edge:                                      ; preds = %._crit_edge.loopexit, %1
  %.val7 = phi ptr [ %.val7.pre, %._crit_edge.loopexit ], [ %.val, %1 ]
  %.not.i.i.i = icmp eq ptr %.val7, null
  br i1 %.not.i.i.i, label %_ZNSt6vectorIPN13sentencepiece7unigram12_GLOBAL__N_110HypothesisESaIS4_EED2Ev.exit, label %4

4:                                                ; preds = %._crit_edge
  %5 = getelementptr inbounds nuw i8, ptr %0, i64 24
  %.val8 = load ptr, ptr %5, align 8
  %6 = ptrtoint ptr %.val8 to i64
  %7 = ptrtoint ptr %.val7 to i64
  %8 = sub i64 %6, %7
  tail call void @_ZdlPvm(ptr noundef nonnull %.val7, i64 noundef %8) #28
  br label %_ZNSt6vectorIPN13sentencepiece7unigram12_GLOBAL__N_110HypothesisESaIS4_EED2Ev.exit

_ZNSt6vectorIPN13sentencepiece7unigram12_GLOBAL__N_110HypothesisESaIS4_EED2Ev.exit: ; preds = %._crit_edge, %4
  ret void

.lr.ph:                                           ; preds = %1, %12
  %.sroa.010.012 = phi ptr [ %13, %12 ], [ %.val, %1 ]
  %9 = load ptr, ptr %.sroa.010.012, align 8, !tbaa !120
  %10 = icmp eq ptr %9, null
  br i1 %10, label %12, label %11

11:                                               ; preds = %.lr.ph
  tail call void @_ZdaPv(ptr noundef nonnull %9) #28
  br label %12

12:                                               ; preds = %11, %.lr.ph
  %13 = getelementptr inbounds nuw i8, ptr %.sroa.010.012, i64 8
  %.not = icmp eq ptr %13, %.val4
  br i1 %.not, label %._crit_edge.loopexit, label %.lr.ph
}